target datalayout = "e-m:e-p270:32:32-p271:32:32-p272:64:64-i64:64-i128:128-f80:128-n8:16:32:64-S128"
target triple = "x86_64-unknown-linux-gnu"

%struct.hdr_histogram = type { i64, i64, i32, i32, i32, i32, i64, i32, i32, i64, i64, i32, double, i32, i64, ptr }
%struct.hdr_iter = type { ptr, i32, i64, i64, i64, i64, i64, i64, i64, i64, i64, %union.anon, ptr }
%union.anon = type { %struct.hdr_iter_linear }
%struct.hdr_iter_linear = type { i64, i64, i64, i64 }

; Function Attrs: nounwind uwtable
define internal i32 @count_leading_zeros_64(i64 noundef %value) #0 {
entry:
  %value.addr = alloca i64, align 8
  store i64 %value, ptr %value.addr, align 8
  %0 = load i64, ptr %value.addr, align 8
  %1 = call i64 @llvm.ctlz.i64(i64 %0, i1 true)
  %cast = trunc i64 %1 to i32
  ret i32 %cast
}

; Function Attrs: nounwind uwtable
define internal i64 @value_from_index(i32 noundef %bucket_index, i32 noundef %sub_bucket_index, i32 noundef %unit_magnitude) #0 {
entry:
  %bucket_index.addr = alloca i32, align 4
  %sub_bucket_index.addr = alloca i32, align 4
  %unit_magnitude.addr = alloca i32, align 4
  store i32 %bucket_index, ptr %bucket_index.addr, align 4
  store i32 %sub_bucket_index, ptr %sub_bucket_index.addr, align 4
  store i32 %unit_magnitude, ptr %unit_magnitude.addr, align 4
  %0 = load i32, ptr %sub_bucket_index.addr, align 4
  %conv = sext i32 %0 to i64
  %1 = load i32, ptr %bucket_index.addr, align 4
  %2 = load i32, ptr %unit_magnitude.addr, align 4
  %add = add nsw i32 %1, %2
  %sh_prom = zext i32 %add to i64
  %shl = shl i64 %conv, %sh_prom
  ret i64 %shl
}

; Function Attrs: nounwind uwtable
define internal i32 @get_sub_bucket_index(i64 noundef %value, i32 noundef %bucket_index, i32 noundef %unit_magnitude) #0 {
entry:
  %value.addr = alloca i64, align 8
  %bucket_index.addr = alloca i32, align 4
  %unit_magnitude.addr = alloca i32, align 4
  store i64 %value, ptr %value.addr, align 8
  store i32 %bucket_index, ptr %bucket_index.addr, align 4
  store i32 %unit_magnitude, ptr %unit_magnitude.addr, align 4
  %0 = load i64, ptr %value.addr, align 8
  %1 = load i32, ptr %bucket_index.addr, align 4
  %2 = load i32, ptr %unit_magnitude.addr, align 4
  %add = add nsw i32 %1, %2
  %sh_prom = zext i32 %add to i64
  %shr = ashr i64 %0, %sh_prom
  %conv = trunc i64 %shr to i32
  ret i32 %conv
}

; Function Attrs: nounwind uwtable
define internal i32 @get_bucket_index(ptr noundef %h, i64 noundef %value) #0 {
entry:
  %h.addr = alloca ptr, align 8
  %value.addr = alloca i64, align 8
  %pow2ceiling = alloca i32, align 4
  store ptr %h, ptr %h.addr, align 8
  store i64 %value, ptr %value.addr, align 8
  %0 = load i64, ptr %value.addr, align 8
  %1 = load ptr, ptr %h.addr, align 8
  %sub_bucket_mask = getelementptr inbounds %struct.hdr_histogram, ptr %1, i32 0, i32 6
  %2 = load i64, ptr %sub_bucket_mask, align 8
  %or = or i64 %0, %2
  %call = call i32 @count_leading_zeros_64(i64 noundef %or)
  %sub = sub nsw i32 64, %call
  store i32 %sub, ptr %pow2ceiling, align 4
  %3 = load i32, ptr %pow2ceiling, align 4
  %4 = load ptr, ptr %h.addr, align 8
  %unit_magnitude = getelementptr inbounds %struct.hdr_histogram, ptr %4, i32 0, i32 2
  %5 = load i32, ptr %unit_magnitude, align 8
  %sub1 = sub nsw i32 %3, %5
  %6 = load ptr, ptr %h.addr, align 8
  %sub_bucket_half_count_magnitude = getelementptr inbounds %struct.hdr_histogram, ptr %6, i32 0, i32 4
  %7 = load i32, ptr %sub_bucket_half_count_magnitude, align 8
  %add = add nsw i32 %7, 1
  %sub2 = sub nsw i32 %sub1, %add
  ret i32 %sub2
}

; Function Attrs: nounwind uwtable
define dso_local i64 @hdr_size_of_equivalent_value_range(ptr noundef %h, i64 noundef %value) #0 {
entry:
  %h.addr = alloca ptr, align 8
  %value.addr = alloca i64, align 8
  %bucket_index = alloca i32, align 4
  %sub_bucket_index = alloca i32, align 4
  %adjusted_bucket = alloca i32, align 4
  store ptr %h, ptr %h.addr, align 8
  store i64 %value, ptr %value.addr, align 8
  %0 = load ptr, ptr %h.addr, align 8
  %1 = load i64, ptr %value.addr, align 8
  %call = call i32 @get_bucket_index(ptr noundef %0, i64 noundef %1)
  store i32 %call, ptr %bucket_index, align 4
  %2 = load i64, ptr %value.addr, align 8
  %3 = load i32, ptr %bucket_index, align 4
  %4 = load ptr, ptr %h.addr, align 8
  %unit_magnitude = getelementptr inbounds %struct.hdr_histogram, ptr %4, i32 0, i32 2
  %5 = load i32, ptr %unit_magnitude, align 8
  %call1 = call i32 @get_sub_bucket_index(i64 noundef %2, i32 noundef %3, i32 noundef %5)
  store i32 %call1, ptr %sub_bucket_index, align 4
  %6 = load i32, ptr %sub_bucket_index, align 4
  %7 = load ptr, ptr %h.addr, align 8
  %sub_bucket_count = getelementptr inbounds %struct.hdr_histogram, ptr %7, i32 0, i32 7
  %8 = load i32, ptr %sub_bucket_count, align 8
  %cmp = icmp sge i32 %6, %8
  br i1 %cmp, label %cond.true, label %cond.false

cond.true:                                        ; preds = %entry
  %9 = load i32, ptr %bucket_index, align 4
  %add = add nsw i32 %9, 1
  br label %cond.end

cond.false:                                       ; preds = %entry
  %10 = load i32, ptr %bucket_index, align 4
  br label %cond.end

cond.end:                                         ; preds = %cond.false, %cond.true
  %cond = phi i32 [ %add, %cond.true ], [ %10, %cond.false ]
  store i32 %cond, ptr %adjusted_bucket, align 4
  %11 = load ptr, ptr %h.addr, align 8
  %unit_magnitude2 = getelementptr inbounds %struct.hdr_histogram, ptr %11, i32 0, i32 2
  %12 = load i32, ptr %unit_magnitude2, align 8
  %13 = load i32, ptr %adjusted_bucket, align 4
  %add3 = add nsw i32 %12, %13
  %sh_prom = zext i32 %add3 to i64
  %shl = shl i64 1, %sh_prom
  ret i64 %shl
}

; Function Attrs: nounwind uwtable
define internal i64 @lowest_equivalent_value(ptr noundef %h, i64 noundef %value) #0 {
entry:
  %h.addr = alloca ptr, align 8
  %value.addr = alloca i64, align 8
  %bucket_index = alloca i32, align 4
  %sub_bucket_index = alloca i32, align 4
  store ptr %h, ptr %h.addr, align 8
  store i64 %value, ptr %value.addr, align 8
  %0 = load ptr, ptr %h.addr, align 8
  %1 = load i64, ptr %value.addr, align 8
  %call = call i32 @get_bucket_index(ptr noundef %0, i64 noundef %1)
  store i32 %call, ptr %bucket_index, align 4
  %2 = load i64, ptr %value.addr, align 8
  %3 = load i32, ptr %bucket_index, align 4
  %4 = load ptr, ptr %h.addr, align 8
  %unit_magnitude = getelementptr inbounds %struct.hdr_histogram, ptr %4, i32 0, i32 2
  %5 = load i32, ptr %unit_magnitude, align 8
  %call1 = call i32 @get_sub_bucket_index(i64 noundef %2, i32 noundef %3, i32 noundef %5)
  store i32 %call1, ptr %sub_bucket_index, align 4
  %6 = load i32, ptr %bucket_index, align 4
  %7 = load i32, ptr %sub_bucket_index, align 4
  %8 = load ptr, ptr %h.addr, align 8
  %unit_magnitude2 = getelementptr inbounds %struct.hdr_histogram, ptr %8, i32 0, i32 2
  %9 = load i32, ptr %unit_magnitude2, align 8
  %call3 = call i64 @value_from_index(i32 noundef %6, i32 noundef %7, i32 noundef %9)
  ret i64 %call3
}

; Function Attrs: nounwind uwtable
define dso_local i64 @hdr_next_non_equivalent_value(ptr noundef %h, i64 noundef %value) #0 {
entry:
  %h.addr = alloca ptr, align 8
  %value.addr = alloca i64, align 8
  store ptr %h, ptr %h.addr, align 8
  store i64 %value, ptr %value.addr, align 8
  %0 = load ptr, ptr %h.addr, align 8
  %1 = load i64, ptr %value.addr, align 8
  %call = call i64 @lowest_equivalent_value(ptr noundef %0, i64 noundef %1)
  %2 = load ptr, ptr %h.addr, align 8
  %3 = load i64, ptr %value.addr, align 8
  %call1 = call i64 @hdr_size_of_equivalent_value_range(ptr noundef %2, i64 noundef %3)
  %add = add nsw i64 %call, %call1
  ret i64 %add
}

; Function Attrs: nounwind uwtable
define internal i64 @highest_equivalent_value(ptr noundef %h, i64 noundef %value) #0 {
entry:
  %h.addr = alloca ptr, align 8
  %value.addr = alloca i64, align 8
  store ptr %h, ptr %h.addr, align 8
  store i64 %value, ptr %value.addr, align 8
  %0 = load ptr, ptr %h.addr, align 8
  %1 = load i64, ptr %value.addr, align 8
  %call = call i64 @hdr_next_non_equivalent_value(ptr noundef %0, i64 noundef %1)
  %sub = sub nsw i64 %call, 1
  ret i64 %sub
}

; Function Attrs: nounwind uwtable
define dso_local zeroext i1 @hdr_iter_next(ptr noundef %iter) #0 {
entry:
  %iter.addr = alloca ptr, align 8
  store ptr %iter, ptr %iter.addr, align 8
  %0 = load ptr, ptr %iter.addr, align 8
  %_next_fp = getelementptr inbounds %struct.hdr_iter, ptr %0, i32 0, i32 12
  %1 = load ptr, ptr %_next_fp, align 8
  %2 = load ptr, ptr %iter.addr, align 8
  %call = call zeroext i1 %1(ptr noundef %2)
  ret i1 %call
}

; Function Attrs: nounwind uwtable
define dso_local void @hdr_iter_init(ptr noundef %iter, ptr noundef %h) #0 {
entry:
  %iter.addr = alloca ptr, align 8
  %h.addr = alloca ptr, align 8
  store ptr %iter, ptr %iter.addr, align 8
  store ptr %h, ptr %h.addr, align 8
  %0 = load ptr, ptr %h.addr, align 8
  %1 = load ptr, ptr %iter.addr, align 8
  %h1 = getelementptr inbounds %struct.hdr_iter, ptr %1, i32 0, i32 0
  store ptr %0, ptr %h1, align 8
  %2 = load ptr, ptr %iter.addr, align 8
  %counts_index = getelementptr inbounds %struct.hdr_iter, ptr %2, i32 0, i32 1
  store i32 -1, ptr %counts_index, align 8
  %3 = load ptr, ptr %h.addr, align 8
  %total_count = getelementptr inbounds %struct.hdr_histogram, ptr %3, i32 0, i32 14
  %4 = load i64, ptr %total_count, align 8
  %5 = load ptr, ptr %iter.addr, align 8
  %total_count2 = getelementptr inbounds %struct.hdr_iter, ptr %5, i32 0, i32 2
  store i64 %4, ptr %total_count2, align 8
  %6 = load ptr, ptr %iter.addr, align 8
  %count = getelementptr inbounds %struct.hdr_iter, ptr %6, i32 0, i32 3
  store i64 0, ptr %count, align 8
  %7 = load ptr, ptr %iter.addr, align 8
  %cumulative_count = getelementptr inbounds %struct.hdr_iter, ptr %7, i32 0, i32 4
  store i64 0, ptr %cumulative_count, align 8
  %8 = load ptr, ptr %iter.addr, align 8
  %value = getelementptr inbounds %struct.hdr_iter, ptr %8, i32 0, i32 5
  store i64 0, ptr %value, align 8
  %9 = load ptr, ptr %iter.addr, align 8
  %highest_equivalent_value = getelementptr inbounds %struct.hdr_iter, ptr %9, i32 0, i32 6
  store i64 0, ptr %highest_equivalent_value, align 8
  %10 = load ptr, ptr %iter.addr, align 8
  %value_iterated_from = getelementptr inbounds %struct.hdr_iter, ptr %10, i32 0, i32 9
  store i64 0, ptr %value_iterated_from, align 8
  %11 = load ptr, ptr %iter.addr, align 8
  %value_iterated_to = getelementptr inbounds %struct.hdr_iter, ptr %11, i32 0, i32 10
  store i64 0, ptr %value_iterated_to, align 8
  %12 = load ptr, ptr %iter.addr, align 8
  %_next_fp = getelementptr inbounds %struct.hdr_iter, ptr %12, i32 0, i32 12
  store ptr @all_values_iter_next, ptr %_next_fp, align 8
  ret void
}

; Function Attrs: nounwind uwtable
define dso_local i32 @hdr_value_at_percentiles(ptr noundef %h, ptr noundef %percentiles, ptr noundef %values, i64 noundef %length) #0 {
entry:
  %retval = alloca i32, align 4
  %h.addr = alloca ptr, align 8
  %percentiles.addr = alloca ptr, align 8
  %values.addr = alloca ptr, align 8
  %length.addr = alloca i64, align 8
  %iter = alloca %struct.hdr_iter, align 8
  %total_count = alloca i64, align 8
  %i = alloca i64, align 8
  %requested_percentile = alloca double, align 8
  %count_at_percentile = alloca i64, align 8
  %total = alloca i64, align 8
  %at_pos = alloca i64, align 8
  store ptr %h, ptr %h.addr, align 8
  store ptr %percentiles, ptr %percentiles.addr, align 8
  store ptr %values, ptr %values.addr, align 8
  store i64 %length, ptr %length.addr, align 8
  %0 = load ptr, ptr %percentiles.addr, align 8
  %cmp = icmp eq ptr null, %0
  br i1 %cmp, label %if.then, label %lor.lhs.false

lor.lhs.false:                                    ; preds = %entry
  %1 = load ptr, ptr %values.addr, align 8
  %cmp1 = icmp eq ptr null, %1
  br i1 %cmp1, label %if.then, label %if.end

if.then:                                          ; preds = %lor.lhs.false, %entry
  store i32 22, ptr %retval, align 4
  br label %return

if.end:                                           ; preds = %lor.lhs.false
  %2 = load ptr, ptr %h.addr, align 8
  %total_count2 = getelementptr inbounds %struct.hdr_histogram, ptr %2, i32 0, i32 14
  %3 = load i64, ptr %total_count2, align 8
  store i64 %3, ptr %total_count, align 8
  store i64 0, ptr %i, align 8
  br label %for.cond

for.cond:                                         ; preds = %for.inc, %if.end
  %4 = load i64, ptr %i, align 8
  %5 = load i64, ptr %length.addr, align 8
  %cmp3 = icmp ult i64 %4, %5
  br i1 %cmp3, label %for.body, label %for.end

for.body:                                         ; preds = %for.cond
  %6 = load ptr, ptr %percentiles.addr, align 8
  %7 = load i64, ptr %i, align 8
  %arrayidx = getelementptr inbounds double, ptr %6, i64 %7
  %8 = load double, ptr %arrayidx, align 8
  %cmp4 = fcmp olt double %8, 1.000000e+02
  br i1 %cmp4, label %cond.true, label %cond.false

cond.true:                                        ; preds = %for.body
  %9 = load ptr, ptr %percentiles.addr, align 8
  %10 = load i64, ptr %i, align 8
  %arrayidx5 = getelementptr inbounds double, ptr %9, i64 %10
  %11 = load double, ptr %arrayidx5, align 8
  br label %cond.end

cond.false:                                       ; preds = %for.body
  br label %cond.end

cond.end:                                         ; preds = %cond.false, %cond.true
  %cond = phi double [ %11, %cond.true ], [ 1.000000e+02, %cond.false ]
  store double %cond, ptr %requested_percentile, align 8
  %12 = load double, ptr %requested_percentile, align 8
  %div = fdiv double %12, 1.000000e+02
  %13 = load i64, ptr %total_count, align 8
  %conv = sitofp i64 %13 to double
  %14 = call double @llvm.fmuladd.f64(double %div, double %conv, double 5.000000e-01)
  %conv6 = fptosi double %14 to i64
  store i64 %conv6, ptr %count_at_percentile, align 8
  %15 = load i64, ptr %count_at_percentile, align 8
  %cmp7 = icmp sgt i64 %15, 1
  br i1 %cmp7, label %cond.true9, label %cond.false10

cond.true9:                                       ; preds = %cond.end
  %16 = load i64, ptr %count_at_percentile, align 8
  br label %cond.end11

cond.false10:                                     ; preds = %cond.end
  br label %cond.end11

cond.end11:                                       ; preds = %cond.false10, %cond.true9
  %cond12 = phi i64 [ %16, %cond.true9 ], [ 1, %cond.false10 ]
  %17 = load ptr, ptr %values.addr, align 8
  %18 = load i64, ptr %i, align 8
  %arrayidx13 = getelementptr inbounds i64, ptr %17, i64 %18
  store i64 %cond12, ptr %arrayidx13, align 8
  br label %for.inc

for.inc:                                          ; preds = %cond.end11
  %19 = load i64, ptr %i, align 8
  %inc = add i64 %19, 1
  store i64 %inc, ptr %i, align 8
  br label %for.cond

for.end:                                          ; preds = %for.cond
  %20 = load ptr, ptr %h.addr, align 8
  call void @hdr_iter_init(ptr noundef %iter, ptr noundef %20)
  store i64 0, ptr %total, align 8
  store i64 0, ptr %at_pos, align 8
  br label %while.cond

while.cond:                                       ; preds = %while.end, %for.end
  %call = call zeroext i1 @hdr_iter_next(ptr noundef %iter)
  br i1 %call, label %land.rhs, label %land.end

land.rhs:                                         ; preds = %while.cond
  %21 = load i64, ptr %at_pos, align 8
  %22 = load i64, ptr %length.addr, align 8
  %cmp15 = icmp ult i64 %21, %22
  br label %land.end

land.end:                                         ; preds = %land.rhs, %while.cond
  %23 = phi i1 [ false, %while.cond ], [ %cmp15, %land.rhs ]
  br i1 %23, label %while.body, label %while.end29

while.body:                                       ; preds = %land.end
  %count = getelementptr inbounds %struct.hdr_iter, ptr %iter, i32 0, i32 3
  %24 = load i64, ptr %count, align 8
  %25 = load i64, ptr %total, align 8
  %add = add nsw i64 %25, %24
  store i64 %add, ptr %total, align 8
  br label %while.cond17

while.cond17:                                     ; preds = %while.body25, %while.body
  %26 = load i64, ptr %at_pos, align 8
  %27 = load i64, ptr %length.addr, align 8
  %cmp18 = icmp ult i64 %26, %27
  br i1 %cmp18, label %land.rhs20, label %land.end24

land.rhs20:                                       ; preds = %while.cond17
  %28 = load i64, ptr %total, align 8
  %29 = load ptr, ptr %values.addr, align 8
  %30 = load i64, ptr %at_pos, align 8
  %arrayidx21 = getelementptr inbounds i64, ptr %29, i64 %30
  %31 = load i64, ptr %arrayidx21, align 8
  %cmp22 = icmp sge i64 %28, %31
  br label %land.end24

land.end24:                                       ; preds = %land.rhs20, %while.cond17
  %32 = phi i1 [ false, %while.cond17 ], [ %cmp22, %land.rhs20 ]
  br i1 %32, label %while.body25, label %while.end

while.body25:                                     ; preds = %land.end24
  %33 = load ptr, ptr %h.addr, align 8
  %value = getelementptr inbounds %struct.hdr_iter, ptr %iter, i32 0, i32 5
  %34 = load i64, ptr %value, align 8
  %call26 = call i64 @highest_equivalent_value(ptr noundef %33, i64 noundef %34)
  %35 = load ptr, ptr %values.addr, align 8
  %36 = load i64, ptr %at_pos, align 8
  %arrayidx27 = getelementptr inbounds i64, ptr %35, i64 %36
  store i64 %call26, ptr %arrayidx27, align 8
  %37 = load i64, ptr %at_pos, align 8
  %inc28 = add i64 %37, 1
  store i64 %inc28, ptr %at_pos, align 8
  br label %while.cond17

while.end:                                        ; preds = %land.end24
  br label %while.cond

while.end29:                                      ; preds = %land.end
  store i32 0, ptr %retval, align 4
  br label %return

return:                                           ; preds = %while.end29, %if.then
  %38 = load i32, ptr %retval, align 4
  ret i32 %38
}