; Function Attrs: nounwind uwtable
define dso_local noundef i32 @hdr_value_at_percentiles(ptr noundef %h, ptr noundef readonly %percentiles, ptr noundef %values, i64 noundef %length) local_unnamed_addr #6 {
entry:
  %iter = alloca %struct.hdr_iter, align 8
  %cmp = icmp eq ptr %percentiles, null
  %cmp1 = icmp eq ptr %values, null
  %or.cond = or i1 %cmp, %cmp1
  br i1 %or.cond, label %return, label %if.end

if.end:                                           ; preds = %entry
  %total_count2 = getelementptr inbounds i8, ptr %h, i64 88
  %cmp322.not = icmp eq i64 %length, 0
  br i1 %cmp322.not, label %for.end, label %for.body.lr.ph

for.body.lr.ph:                                   ; preds = %if.end
  %0 = load i64, ptr %total_count2, align 8
  %conv = sitofp i64 %0 to double
  br label %for.body

for.body:                                         ; preds = %for.body.lr.ph, %for.body
  %i.023 = phi i64 [ 0, %for.body.lr.ph ], [ %inc, %for.body ]
  %arrayidx = getelementptr inbounds double, ptr %percentiles, i64 %i.023
  %1 = load double, ptr %arrayidx, align 8
  %cmp4 = fcmp olt double %1, 1.000000e+02
  %cond = select i1 %cmp4, double %1, double 1.000000e+02
  %div = fdiv double %cond, 1.000000e+02
  %2 = tail call double @llvm.fmuladd.f64(double %div, double %conv, double 5.000000e-01)
  %conv6 = fptosi double %2 to i64
  %cond12 = tail call i64 @llvm.smax.i64(i64 %conv6, i64 1)
  %arrayidx13 = getelementptr inbounds i64, ptr %values, i64 %i.023
  store i64 %cond12, ptr %arrayidx13, align 8
  %inc = add nuw i64 %i.023, 1
  %exitcond.not = icmp eq i64 %inc, %length
  br i1 %exitcond.not, label %for.end, label %for.body

for.end:                                          ; preds = %for.body, %if.end
  store ptr %h, ptr %iter, align 8
  %counts_index.i = getelementptr inbounds i8, ptr %iter, i64 8
  store i32 -1, ptr %counts_index.i, align 8
  %3 = load i64, ptr %total_count2, align 8
  %total_count2.i = getelementptr inbounds i8, ptr %iter, i64 16
  store i64 %3, ptr %total_count2.i, align 8
  %count.i = getelementptr inbounds i8, ptr %iter, i64 24
  %value_iterated_from.i = getelementptr inbounds i8, ptr %iter, i64 72
  %_next_fp.i = getelementptr inbounds i8, ptr %iter, i64 120
  call void @llvm.memset.p0.i64(ptr noundef nonnull align 8 dereferenceable(32) %count.i, i8 0, i64 32, i1 false)
  call void @llvm.memset.p0.i64(ptr noundef nonnull align 8 dereferenceable(16) %value_iterated_from.i, i8 0, i64 16, i1 false)
  store ptr @all_values_iter_next, ptr %_next_fp.i, align 8
  %call.i25 = call zeroext i1 @all_values_iter_next(ptr noundef nonnull %iter) #21
  %cmp1526 = icmp ne i64 %length, 0
  %4 = and i1 %cmp1526, %call.i25
  br i1 %4, label %while.body.lr.ph, label %return

while.body.lr.ph:                                 ; preds = %for.end
  %value = getelementptr inbounds i8, ptr %iter, i64 40
  %sub_bucket_mask.i.i.i.i = getelementptr inbounds i8, ptr %h, i64 32
  %sub_bucket_half_count_magnitude.i.i.i.i = getelementptr inbounds i8, ptr %h, i64 24
  %sub_bucket_count.i.i.i = getelementptr inbounds i8, ptr %h, i64 40
  br label %while.body

while.body:                                       ; preds = %while.body.lr.ph, %while.end
  %at_pos.028 = phi i64 [ 0, %while.body.lr.ph ], [ %at_pos.1.lcssa, %while.end ]
  %total.027 = phi i64 [ 0, %while.body.lr.ph ], [ %add, %while.end ]
  %5 = load i64, ptr %count.i, align 8
  %add = add nsw i64 %5, %total.027
  %6 = load i64, ptr %value, align 8
  br label %land.rhs20

land.rhs20:                                       ; preds = %while.body, %while.body25
  %at_pos.124 = phi i64 [ %at_pos.028, %while.body ], [ %inc28, %while.body25 ]
  %arrayidx21 = getelementptr inbounds i64, ptr %values, i64 %at_pos.124
  %7 = load i64, ptr %arrayidx21, align 8
  %cmp22.not = icmp slt i64 %add, %7
  br i1 %cmp22.not, label %while.end, label %while.body25

while.body25:                                     ; preds = %land.rhs20
  %8 = load i64, ptr %sub_bucket_mask.i.i.i.i, align 8
  %or.i.i.i.i = or i64 %8, %6
  %9 = call i64 @llvm.ctlz.i64(i64 %or.i.i.i.i, i1 true), !range !5
  %cast.i.i.i.i.i = trunc i64 %9 to i32
  %10 = load i32, ptr %sub_bucket_half_count_magnitude.i.i.i.i, align 8
  %11 = add i32 %10, %cast.i.i.i.i.i
  %add.i.i.i.i = sub i32 63, %11
  %sh_prom.i.i.i.i = zext nneg i32 %add.i.i.i.i to i64
  %shr.i.i.i.i = ashr i64 %6, %sh_prom.i.i.i.i
  %sext.i.i.i = shl i64 %shr.i.i.i.i, 32
  %conv.i5.i.i.i = ashr exact i64 %sext.i.i.i, 32
  %shl.i.i.i.i = shl i64 %conv.i5.i.i.i, %sh_prom.i.i.i.i
  %conv.i.i.i.i = trunc i64 %shr.i.i.i.i to i32
  %12 = load i32, ptr %sub_bucket_count.i.i.i, align 8
  %cmp.not.i.i.i = icmp sle i32 %12, %conv.i.i.i.i
  %add.i.i.i = zext i1 %cmp.not.i.i.i to i32
  %add3.i.i.i = add i32 %add.i.i.i.i, %add.i.i.i
  %sh_prom.i.i.i = zext nneg i32 %add3.i.i.i to i64
  %shl.i.i.i = shl nuw i64 1, %sh_prom.i.i.i
  %add.i.i = add i64 %shl.i.i.i.i, -1
  %sub.i = add i64 %add.i.i, %shl.i.i.i
  store i64 %sub.i, ptr %arrayidx21, align 8
  %inc28 = add nuw i64 %at_pos.124, 1
  %cmp18 = icmp ult i64 %inc28, %length
  br i1 %cmp18, label %land.rhs20, label %while.end

while.end:                                        ; preds = %while.body25, %land.rhs20
  %at_pos.1.lcssa = phi i64 [ %inc28, %while.body25 ], [ %at_pos.124, %land.rhs20 ]
  %13 = load ptr, ptr %_next_fp.i, align 8
  %call.i = call zeroext i1 %13(ptr noundef nonnull %iter) #21
  %cmp15 = icmp ult i64 %at_pos.1.lcssa, %length
  %14 = and i1 %cmp15, %call.i
  br i1 %14, label %while.body, label %return

return:                                           ; preds = %while.end, %for.end, %entry
  %retval.0 = phi i32 [ 22, %entry ], [ 0, %for.end ], [ 0, %while.end ]
  ret i32 %retval.0
}